	.file	"extern_c.cpp"
	.text
	.globl	get
	.type	get, @function
get:
.LFB0:
	.cfi_startproc
	pushq	%rbp
	.cfi_def_cfa_offset 16
	.cfi_offset 6, -16
	movq	%rsp, %rbp
	.cfi_def_cfa_register 6
	movl	%edi, %eax
	movb	%al, -4(%rbp)
	movzbl	-4(%rbp), %eax
	popq	%rbp
	.cfi_def_cfa 7, 8
	ret
	.cfi_endproc
.LFE0:
	.size	get, .-get
	.globl	mult
	.type	mult, @function
mult:
.LFB1:
	.cfi_startproc
	pushq	%rbp
	.cfi_def_cfa_offset 16
	.cfi_offset 6, -16
	movq	%rsp, %rbp
	.cfi_def_cfa_register 6
	movl	%edi, -4(%rbp)
	movl	%esi, -8(%rbp)
	movl	-4(%rbp), %eax
	imull	-8(%rbp), %eax
	popq	%rbp
	.cfi_def_cfa 7, 8
	ret
	.cfi_endproc
.LFE1:
	.size	mult, .-mult
	.globl	_Z4diviff
	.type	_Z4diviff, @function
_Z4diviff:
.LFB2:
	.cfi_startproc
	pushq	%rbp
	.cfi_def_cfa_offset 16
	.cfi_offset 6, -16
	movq	%rsp, %rbp
	.cfi_def_cfa_register 6
	movss	%xmm0, -4(%rbp)
	movss	%xmm1, -8(%rbp)
	movss	-4(%rbp), %xmm0
	divss	-8(%rbp), %xmm0
	movss	%xmm0, -12(%rbp)
	movl	-12(%rbp), %eax
	movl	%eax, -12(%rbp)
	movss	-12(%rbp), %xmm0
	popq	%rbp
	.cfi_def_cfa 7, 8
	ret
	.cfi_endproc
.LFE2:
	.size	_Z4diviff, .-_Z4diviff
	.ident	"GCC: (Ubuntu 4.8.4-2ubuntu1~14.04.3) 4.8.4"
	.section	.note.GNU-stack,"",@progbits
